target datalayout = "e-m:e-p270:32:32-p271:32:32-p272:64:64-i64:64-i128:128-f80:128-n8:16:32:64-S128"
target triple = "x86_64-pc-linux-gnu"

%union.anon = type { i64, [8 x i8] }

; Function Attrs: nounwind uwtable
define i64 @CRYPTO_cts128_encrypt(ptr noundef %0, ptr noundef %1, i64 noundef %2, ptr noundef %3, ptr noundef %4, ptr noundef %5) #0 {
  %7 = alloca i64, align 8
  %8 = alloca ptr, align 8
  %9 = alloca ptr, align 8
  %10 = alloca i64, align 8
  %11 = alloca ptr, align 8
  %12 = alloca ptr, align 8
  %13 = alloca ptr, align 8
  %14 = alloca i64, align 8
  %15 = alloca %union.anon, align 8
  %16 = alloca i32, align 4
  store ptr %0, ptr %8, align 8, !tbaa !3
  store ptr %1, ptr %9, align 8, !tbaa !3
  store i64 %2, ptr %10, align 8, !tbaa !8
  store ptr %3, ptr %11, align 8, !tbaa !10
  store ptr %4, ptr %12, align 8, !tbaa !3
  store ptr %5, ptr %13, align 8, !tbaa !10
  call void @llvm.lifetime.start.p0(i64 8, ptr %14) #5
  call void @llvm.lifetime.start.p0(i64 16, ptr %15) #5
  %17 = load i64, ptr %10, align 8, !tbaa !8
  %18 = icmp ule i64 %17, 16
  br i1 %18, label %19, label %20

19:                                               ; preds = %6
  store i64 0, ptr %7, align 8
  store i32 1, ptr %16, align 4
  br label %58

20:                                               ; preds = %6
  %21 = load i64, ptr %10, align 8, !tbaa !8
  %22 = urem i64 %21, 16
  store i64 %22, ptr %14, align 8, !tbaa !8
  %23 = icmp eq i64 %22, 0
  br i1 %23, label %24, label %25

24:                                               ; preds = %20
  store i64 16, ptr %14, align 8, !tbaa !8
  br label %25

25:                                               ; preds = %24, %20
  %26 = load i64, ptr %14, align 8, !tbaa !8
  %27 = load i64, ptr %10, align 8, !tbaa !8
  %28 = sub i64 %27, %26
  store i64 %28, ptr %10, align 8, !tbaa !8
  %29 = load ptr, ptr %13, align 8, !tbaa !10
  %30 = load ptr, ptr %8, align 8, !tbaa !3
  %31 = load ptr, ptr %9, align 8, !tbaa !3
  %32 = load i64, ptr %10, align 8, !tbaa !8
  %33 = load ptr, ptr %11, align 8, !tbaa !10
  %34 = load ptr, ptr %12, align 8, !tbaa !3
  call void %29(ptr noundef %30, ptr noundef %31, i64 noundef %32, ptr noundef %33, ptr noundef %34, i32 noundef 1)
  %35 = load i64, ptr %10, align 8, !tbaa !8
  %36 = load ptr, ptr %8, align 8, !tbaa !3
  %37 = getelementptr inbounds nuw i8, ptr %36, i64 %35
  store ptr %37, ptr %8, align 8, !tbaa !3
  %38 = load i64, ptr %10, align 8, !tbaa !8
  %39 = load ptr, ptr %9, align 8, !tbaa !3
  %40 = getelementptr inbounds nuw i8, ptr %39, i64 %38
  store ptr %40, ptr %9, align 8, !tbaa !3
  %41 = getelementptr inbounds [16 x i8], ptr %15, i64 0, i64 0
  call void @llvm.memset.p0.i64(ptr align 8 %41, i8 0, i64 16, i1 false)
  %42 = getelementptr inbounds [16 x i8], ptr %15, i64 0, i64 0
  %43 = load ptr, ptr %8, align 8, !tbaa !3
  %44 = load i64, ptr %14, align 8, !tbaa !8
  call void @llvm.memcpy.p0.p0.i64(ptr align 8 %42, ptr align 1 %43, i64 %44, i1 false)
  %45 = load ptr, ptr %9, align 8, !tbaa !3
  %46 = load ptr, ptr %9, align 8, !tbaa !3
  %47 = getelementptr inbounds i8, ptr %46, i64 -16
  %48 = load i64, ptr %14, align 8, !tbaa !8
  call void @llvm.memcpy.p0.p0.i64(ptr align 1 %45, ptr align 1 %47, i64 %48, i1 false)
  %49 = load ptr, ptr %13, align 8, !tbaa !10
  %50 = getelementptr inbounds [16 x i8], ptr %15, i64 0, i64 0
  %51 = load ptr, ptr %9, align 8, !tbaa !3
  %52 = getelementptr inbounds i8, ptr %51, i64 -16
  %53 = load ptr, ptr %11, align 8, !tbaa !10
  %54 = load ptr, ptr %12, align 8, !tbaa !3
  call void %49(ptr noundef %50, ptr noundef %52, i64 noundef 16, ptr noundef %53, ptr noundef %54, i32 noundef 1)
  %55 = load i64, ptr %10, align 8, !tbaa !8
  %56 = load i64, ptr %14, align 8, !tbaa !8
  %57 = add i64 %55, %56
  store i64 %57, ptr %7, align 8
  store i32 1, ptr %16, align 4
  br label %58

58:                                               ; preds = %25, %19
  call void @llvm.lifetime.end.p0(i64 16, ptr %15) #5
  call void @llvm.lifetime.end.p0(i64 8, ptr %14) #5
  %59 = load i64, ptr %7, align 8
  ret i64 %59
}