; Function Attrs: nounwind uwtable
define range(i64 17, 1) i64 @CRYPTO_cts128_encrypt(ptr noundef %0, ptr noundef %1, i64 noundef %2, ptr noundef %3, ptr noundef %4, ptr noundef readonly captures(none) %5) local_unnamed_addr #0 {
  %7 = alloca %union.anon, align 8
  call void @llvm.lifetime.start.p0(i64 16, ptr nonnull %7) #5
  %8 = icmp ult i64 %2, 17
  br i1 %8, label %18, label %9

9:                                                ; preds = %6
  %10 = and i64 %2, 15
  %11 = icmp eq i64 %10, 0
  %spec.store.select = select i1 %11, i64 16, i64 %10
  %12 = sub nuw i64 %2, %spec.store.select
  tail call void %5(ptr noundef %0, ptr noundef %1, i64 noundef %12, ptr noundef %3, ptr noundef %4, i32 noundef 1) #5
  %13 = getelementptr inbounds nuw i8, ptr %0, i64 %12
  %14 = getelementptr inbounds nuw i8, ptr %1, i64 %12
  %15 = sub nuw nsw i64 16, %spec.store.select
  %16 = getelementptr i8, ptr %7, i64 %spec.store.select
  call void @llvm.memset.p0.i64(ptr align 1 %16, i8 0, i64 %15, i1 false)
  call void @llvm.memcpy.p0.p0.i64(ptr noundef nonnull align 8 dereferenceable(1) %7, ptr noundef nonnull align 1 dereferenceable(1) %13, i64 %spec.store.select, i1 false)
  %17 = getelementptr inbounds i8, ptr %14, i64 -16
  tail call void @llvm.memcpy.p0.p0.i64(ptr noundef nonnull align 1 dereferenceable(1) %14, ptr noundef nonnull align 1 dereferenceable(1) %17, i64 %spec.store.select, i1 false)
  call void %5(ptr noundef nonnull %7, ptr noundef nonnull %17, i64 noundef 16, ptr noundef %3, ptr noundef %4, i32 noundef 1) #5
  br label %18

18:                                               ; preds = %6, %9
  %.0 = phi i64 [ %2, %9 ], [ 0, %6 ]
  call void @llvm.lifetime.end.p0(i64 16, ptr nonnull %7) #5
  ret i64 %.0
}